; Function Attrs: mustprogress nounwind uwtable
define internal void @"_ZNSt17_Function_handlerIFNSt7__cxx1112basic_stringIcSt11char_traitsIcESaIcEEERN5clang4ento18BugReporterContextERNS7_22PathSensitiveBugReportEEZNS7_10CoreEngine15HandleBlockEdgeERKNS6_9BlockEdgeEPNS7_12ExplodedNodeEE3$_0E9_M_invokeERKSt9_Any_dataS9_SB_"(ptr dead_on_unwind noalias writable sret(%"class.std::__cxx11::basic_string") align 8 %0, ptr nonnull readnone align 8 captures(none) %1, ptr nonnull readnone align 8 captures(none) %2, ptr nonnull readnone align 8 captures(none) %3) #0 align 2 {
  %5 = alloca i64, align 8
  %6 = alloca %"class.std::allocator.96", align 1
  call void @llvm.lifetime.start.p0(i64 1, ptr nonnull %6), !noalias !57
  call void @_ZNSaIcEC1Ev(ptr noundef nonnull align 1 dereferenceable(1) %6) #16, !noalias !62
  %7 = call noundef ptr @_ZNSt7__cxx1112basic_stringIcSt11char_traitsIcESaIcEE13_M_local_dataEv(ptr noundef nonnull align 8 dereferenceable(32) %0) #16
  call void @_ZNSt7__cxx1112basic_stringIcSt11char_traitsIcESaIcEE12_Alloc_hiderC1EPcRKS3_(ptr noundef nonnull align 8 dereferenceable(32) %0, ptr noundef %7, ptr noundef nonnull align 1 dereferenceable(1) %6) #16
  call void @llvm.lifetime.start.p0(i64 8, ptr nonnull %5), !noalias !57
  store i64 97, ptr %5, align 8, !noalias !57
  %8 = call noundef ptr @_ZNSt7__cxx1112basic_stringIcSt11char_traitsIcESaIcEE9_M_createERmm(ptr noundef nonnull align 8 dereferenceable(32) %0, ptr noundef nonnull align 8 dereferenceable(8) %5, i64 noundef 0) #16
  call void @_ZNSt7__cxx1112basic_stringIcSt11char_traitsIcESaIcEE7_M_dataEPc(ptr noundef nonnull align 8 dereferenceable(32) %0, ptr noundef %8) #16
  %9 = load i64, ptr %5, align 8, !noalias !57
  call void @_ZNSt7__cxx1112basic_stringIcSt11char_traitsIcESaIcEE11_M_capacityEm(ptr noundef nonnull align 8 dereferenceable(32) %0, i64 noundef %9) #16
  %10 = call noundef ptr @_ZNKSt7__cxx1112basic_stringIcSt11char_traitsIcESaIcEE7_M_dataEv(ptr noundef nonnull align 8 dereferenceable(32) %0) #16
  call void @_ZNSt7__cxx1112basic_stringIcSt11char_traitsIcESaIcEE13_S_copy_charsEPcPKcS7_(ptr noundef %10, ptr noundef nonnull @.str.16, ptr noundef nonnull getelementptr inbounds nuw (i8, ptr @.str.16, i64 97)) #16
  %11 = load i64, ptr %5, align 8, !noalias !57
  call void @_ZNSt7__cxx1112basic_stringIcSt11char_traitsIcESaIcEE13_M_set_lengthEm(ptr noundef nonnull align 8 dereferenceable(32) %0, i64 noundef %11) #16
  call void @llvm.lifetime.end.p0(i64 8, ptr nonnull %5), !noalias !57
  call void @_ZNSaIcED1Ev(ptr noundef nonnull align 1 dereferenceable(1) %6) #16
  call void @llvm.lifetime.end.p0(i64 1, ptr nonnull %6), !noalias !57
  ret void
}